target datalayout = "e-m:e-p270:32:32-p271:32:32-p272:64:64-i64:64-i128:128-f80:128-n8:16:32:64-S128"
target triple = "x86_64-pc-linux-gnu"

%struct.ossl_method_store_st = type { ptr, ptr, ptr, ptr, i64, i32 }
%struct.alg_cleanup_by_provider_data_st = type { ptr, ptr }

; Function Attrs: nounwind uwtable
define internal i32 @ossl_property_unlock(ptr noundef %0) #0 {
  %2 = alloca ptr, align 8
  store ptr %0, ptr %2, align 8, !tbaa !16
  %3 = load ptr, ptr %2, align 8, !tbaa !16
  %4 = icmp ne ptr %3, null
  br i1 %4, label %5, label %10

5:                                                ; preds = %1
  %6 = load ptr, ptr %2, align 8, !tbaa !16
  %7 = getelementptr inbounds nuw %struct.ossl_method_store_st, ptr %6, i32 0, i32 2
  %8 = load ptr, ptr %7, align 8, !tbaa !23
  %9 = call i32 @CRYPTO_THREAD_unlock(ptr noundef %8)
  br label %11

10:                                               ; preds = %1
  br label %11

11:                                               ; preds = %10, %5
  %12 = phi i32 [ %9, %5 ], [ 0, %10 ]
  ret i32 %12
}

; Function Attrs: inlinehint nounwind uwtable
define internal void @ossl_sa_ALGORITHM_doall_arg(ptr noundef %0, ptr noundef %1, ptr noundef %2) #3 {
  %4 = alloca ptr, align 8
  %5 = alloca ptr, align 8
  %6 = alloca ptr, align 8
  store ptr %0, ptr %4, align 8, !tbaa !25
  store ptr %1, ptr %5, align 8, !tbaa !3
  store ptr %2, ptr %6, align 8, !tbaa !3
  %7 = load ptr, ptr %4, align 8, !tbaa !25
  %8 = load ptr, ptr %5, align 8, !tbaa !3
  %9 = load ptr, ptr %6, align 8, !tbaa !3
  call void @ossl_sa_doall_arg(ptr noundef %7, ptr noundef %8, ptr noundef %9)
  ret void
}

; Function Attrs: nounwind uwtable
define internal i32 @ossl_property_write_lock(ptr noundef %0) #0 {
  %2 = alloca ptr, align 8
  store ptr %0, ptr %2, align 8, !tbaa !16
  %3 = load ptr, ptr %2, align 8, !tbaa !16
  %4 = icmp ne ptr %3, null
  br i1 %4, label %5, label %10

5:                                                ; preds = %1
  %6 = load ptr, ptr %2, align 8, !tbaa !16
  %7 = getelementptr inbounds nuw %struct.ossl_method_store_st, ptr %6, i32 0, i32 2
  %8 = load ptr, ptr %7, align 8, !tbaa !23
  %9 = call i32 @CRYPTO_THREAD_write_lock(ptr noundef %8)
  br label %11

10:                                               ; preds = %1
  br label %11

11:                                               ; preds = %10, %5
  %12 = phi i32 [ %9, %5 ], [ 0, %10 ]
  ret i32 %12
}

; Function Attrs: nounwind uwtable
define i32 @ossl_method_store_remove_all_provided(ptr noundef %0, ptr noundef %1) #0 {
  %3 = alloca i32, align 4
  %4 = alloca ptr, align 8
  %5 = alloca ptr, align 8
  %6 = alloca %struct.alg_cleanup_by_provider_data_st, align 8
  %7 = alloca i32, align 4
  store ptr %0, ptr %4, align 8, !tbaa !16
  store ptr %1, ptr %5, align 8, !tbaa !32
  call void @llvm.lifetime.start.p0(i64 16, ptr %6) #7
  %8 = load ptr, ptr %4, align 8, !tbaa !16
  %9 = call i32 @ossl_property_write_lock(ptr noundef %8)
  %10 = icmp ne i32 %9, 0
  br i1 %10, label %12, label %11

11:                                               ; preds = %2
  store i32 0, ptr %3, align 4
  store i32 1, ptr %7, align 4
  br label %22

12:                                               ; preds = %2
  %13 = load ptr, ptr %5, align 8, !tbaa !32
  %14 = getelementptr inbounds nuw %struct.alg_cleanup_by_provider_data_st, ptr %6, i32 0, i32 1
  store ptr %13, ptr %14, align 8, !tbaa !55
  %15 = load ptr, ptr %4, align 8, !tbaa !16
  %16 = getelementptr inbounds nuw %struct.alg_cleanup_by_provider_data_st, ptr %6, i32 0, i32 0
  store ptr %15, ptr %16, align 8, !tbaa !57
  %17 = load ptr, ptr %4, align 8, !tbaa !16
  %18 = getelementptr inbounds nuw %struct.ossl_method_store_st, ptr %17, i32 0, i32 1
  %19 = load ptr, ptr %18, align 8, !tbaa !22
  call void @ossl_sa_ALGORITHM_doall_arg(ptr noundef %19, ptr noundef @alg_cleanup_by_provider, ptr noundef %6)
  %20 = load ptr, ptr %4, align 8, !tbaa !16
  %21 = call i32 @ossl_property_unlock(ptr noundef %20)
  store i32 1, ptr %3, align 4
  store i32 1, ptr %7, align 4
  br label %22

22:                                               ; preds = %12, %11
  call void @llvm.lifetime.end.p0(i64 16, ptr %6) #7
  %23 = load i32, ptr %3, align 4
  ret i32 %23
}