; Function Attrs: nounwind uwtable
define range(i32 0, 2) i32 @ossl_method_store_remove_all_provided(ptr noundef %0, ptr noundef %1) local_unnamed_addr #0 {
  %3 = alloca %struct.alg_cleanup_by_provider_data_st, align 8
  call void @llvm.lifetime.start.p0(i64 16, ptr nonnull %3) #7
  %.not.i = icmp eq ptr %0, null
  br i1 %.not.i, label %ossl_property_write_lock.exit.thread, label %ossl_property_write_lock.exit

ossl_property_write_lock.exit:                    ; preds = %2
  %4 = getelementptr inbounds nuw i8, ptr %0, i64 16
  %5 = load ptr, ptr %4, align 8, !tbaa !16
  %6 = tail call i32 @CRYPTO_THREAD_write_lock(ptr noundef %5) #7
  %.not = icmp eq i32 %6, 0
  br i1 %.not, label %ossl_property_write_lock.exit.thread, label %ossl_property_unlock.exit

ossl_property_unlock.exit:                        ; preds = %ossl_property_write_lock.exit
  %7 = getelementptr inbounds nuw i8, ptr %3, i64 8
  store ptr %1, ptr %7, align 8, !tbaa !43
  store ptr %0, ptr %3, align 8, !tbaa !46
  %8 = getelementptr inbounds nuw i8, ptr %0, i64 8
  %9 = load ptr, ptr %8, align 8, !tbaa !15
  call void @ossl_sa_doall_arg(ptr noundef %9, ptr noundef nonnull @alg_cleanup_by_provider, ptr noundef nonnull %3) #7
  %10 = load ptr, ptr %4, align 8, !tbaa !16
  %11 = call i32 @CRYPTO_THREAD_unlock(ptr noundef %10) #7
  br label %ossl_property_write_lock.exit.thread

ossl_property_write_lock.exit.thread:             ; preds = %2, %ossl_property_write_lock.exit, %ossl_property_unlock.exit
  %.0 = phi i32 [ 1, %ossl_property_unlock.exit ], [ 0, %ossl_property_write_lock.exit ], [ 0, %2 ]
  call void @llvm.lifetime.end.p0(i64 16, ptr nonnull %3) #7
  ret i32 %.0
}